target datalayout = "e-m:e-p270:32:32-p271:32:32-p272:64:64-i64:64-i128:128-f80:128-n8:16:32:64-S128"
target triple = "x86_64-pc-linux-gnu"

%struct.pmix_class_t = type { ptr, ptr, ptr, ptr, i32, i32, ptr, ptr, i64 }
%struct.pmix_lock_t = type { i32, %struct.pmix_mutex_t, %union.pthread_cond_t, i8 }
%struct.pmix_mutex_t = type { %struct.pmix_object_t, %union.pthread_mutex_t }
%struct.pmix_object_t = type { %union.pthread_mutex_t, ptr, i32, %struct.pmix_tma }
%struct.pmix_tma = type { ptr, ptr, ptr, ptr, ptr, ptr, ptr, ptr }
%union.pthread_mutex_t = type { %struct.__pthread_mutex_s }
%struct.__pthread_mutex_s = type { i32, i32, i32, i32, i32, i16, i16, %struct.__pthread_internal_list }
%struct.__pthread_internal_list = type { ptr, ptr }
%union.pthread_cond_t = type { %struct.__pthread_cond_s }
%struct.__pthread_cond_s = type { %union.__atomic_wide_counter, %union.__atomic_wide_counter, [2 x i32], [2 x i32], i32, i32, [2 x i32] }
%union.__atomic_wide_counter = type { i64 }
%struct.timeval = type { i64, i64 }
%struct.pmix_list_t = type { %struct.pmix_object_t, %struct.pmix_list_item_t, i64 }
%struct.pmix_list_item_t = type { %struct.pmix_object_t, ptr, ptr, i32 }
%struct.pmix_query_caddy_t = type { %struct.pmix_object_t, %struct.event, %struct.pmix_lock_t, i8, i32, ptr, i64, ptr, i64, ptr, ptr, i64, i64, %struct.pmix_list_t, i64, i64, %struct.pmix_byte_object, ptr, ptr, ptr, ptr, ptr, ptr }
%struct.event = type { %struct.event_callback, %union.anon.0, i32, ptr, %union.anon.2, i16, i16, %struct.timeval }
%struct.event_callback = type { %struct.anon, i16, i8, i8, %union.anon, ptr }
%struct.anon = type { ptr, ptr }
%union.anon = type { ptr }
%union.anon.0 = type { %struct.anon.1 }
%struct.anon.1 = type { ptr, ptr }
%union.anon.2 = type { %struct.anon.3 }
%struct.anon.3 = type { %struct.anon.4, %struct.timeval }
%struct.anon.4 = type { ptr, ptr }
%struct.pmix_byte_object = type { ptr, i64 }

@pmix_class_init_epoch = external global i32, align 4
@pmix_query_caddy_t_class = external global %struct.pmix_class_t, align 8

; Function Attrs: inlinehint nounwind uwtable
define internal void @pmix_obj_run_destructors(ptr noundef %0) #3 {
  %2 = alloca ptr, align 8
  %3 = alloca ptr, align 8
  store ptr %0, ptr %2, align 8, !tbaa !50
  call void @llvm.lifetime.start.p0(i64 8, ptr %3) #10
  %4 = load ptr, ptr %2, align 8, !tbaa !50
  %5 = getelementptr inbounds nuw %struct.pmix_object_t, ptr %4, i32 0, i32 1
  %6 = load ptr, ptr %5, align 8, !tbaa !18
  %7 = getelementptr inbounds nuw %struct.pmix_class_t, ptr %6, i32 0, i32 7
  %8 = load ptr, ptr %7, align 8, !tbaa !126
  store ptr %8, ptr %3, align 8, !tbaa !63
  br label %9

9:                                                ; preds = %13, %1
  %10 = load ptr, ptr %3, align 8, !tbaa !63
  %11 = load ptr, ptr %10, align 8, !tbaa !63
  %12 = icmp ne ptr null, %11
  br i1 %12, label %13, label %19

13:                                               ; preds = %9
  %14 = load ptr, ptr %3, align 8, !tbaa !63
  %15 = load ptr, ptr %14, align 8, !tbaa !63
  %16 = load ptr, ptr %2, align 8, !tbaa !50
  call void %15(ptr noundef %16)
  %17 = load ptr, ptr %3, align 8, !tbaa !63
  %18 = getelementptr inbounds nuw ptr, ptr %17, i32 1
  store ptr %18, ptr %3, align 8, !tbaa !63
  br label %9, !llvm.loop !127

19:                                               ; preds = %9
  call void @llvm.lifetime.end.p0(i64 8, ptr %3) #10
  ret void
}

; Function Attrs: inlinehint nounwind uwtable
define internal void @pmix_mutex_unlock(ptr noundef %0) #3 {
  %2 = alloca ptr, align 8
  store ptr %0, ptr %2, align 8, !tbaa !124
  %3 = load ptr, ptr %2, align 8, !tbaa !124
  %4 = getelementptr inbounds nuw %struct.pmix_mutex_t, ptr %3, i32 0, i32 1
  %5 = call i32 @pthread_mutex_unlock(ptr noundef %4) #10
  ret void
}

; Function Attrs: inlinehint nounwind uwtable
define internal void @pmix_atomic_rmb() #3 {
  fence acquire
  ret void
}

; Function Attrs: inlinehint nounwind uwtable
define internal void @pmix_mutex_lock(ptr noundef %0) #3 {
  %2 = alloca ptr, align 8
  store ptr %0, ptr %2, align 8, !tbaa !124
  %3 = load ptr, ptr %2, align 8, !tbaa !124
  %4 = getelementptr inbounds nuw %struct.pmix_mutex_t, ptr %3, i32 0, i32 1
  %5 = call i32 @pthread_mutex_lock(ptr noundef %4) #10
  ret void
}

; Function Attrs: inlinehint nounwind uwtable
define internal void @pmix_obj_run_constructors(ptr noundef %0) #3 {
  %2 = alloca ptr, align 8
  %3 = alloca ptr, align 8
  store ptr %0, ptr %2, align 8, !tbaa !50
  call void @llvm.lifetime.start.p0(i64 8, ptr %3) #10
  %4 = load ptr, ptr %2, align 8, !tbaa !50
  %5 = getelementptr inbounds nuw %struct.pmix_object_t, ptr %4, i32 0, i32 1
  %6 = load ptr, ptr %5, align 8, !tbaa !18
  %7 = getelementptr inbounds nuw %struct.pmix_class_t, ptr %6, i32 0, i32 6
  %8 = load ptr, ptr %7, align 8, !tbaa !64
  store ptr %8, ptr %3, align 8, !tbaa !63
  br label %9

9:                                                ; preds = %13, %1
  %10 = load ptr, ptr %3, align 8, !tbaa !63
  %11 = load ptr, ptr %10, align 8, !tbaa !63
  %12 = icmp ne ptr null, %11
  br i1 %12, label %13, label %19

13:                                               ; preds = %9
  %14 = load ptr, ptr %3, align 8, !tbaa !63
  %15 = load ptr, ptr %14, align 8, !tbaa !63
  %16 = load ptr, ptr %2, align 8, !tbaa !50
  call void %15(ptr noundef %16)
  %17 = load ptr, ptr %3, align 8, !tbaa !63
  %18 = getelementptr inbounds nuw ptr, ptr %17, i32 1
  store ptr %18, ptr %3, align 8, !tbaa !63
  br label %9, !llvm.loop !65

19:                                               ; preds = %9
  call void @llvm.lifetime.end.p0(i64 8, ptr %3) #10
  ret void
}

; Function Attrs: inlinehint nounwind uwtable
define internal void @pmix_obj_construct_tma(ptr noundef %0, ptr noundef %1) #3 {
  %3 = alloca ptr, align 8
  %4 = alloca ptr, align 8
  store ptr %0, ptr %3, align 8, !tbaa !50
  store ptr %1, ptr %4, align 8, !tbaa !52
  %5 = load ptr, ptr %4, align 8, !tbaa !52
  %6 = icmp eq ptr null, %5
  br i1 %6, label %7, label %32

7:                                                ; preds = %2
  %8 = load ptr, ptr %3, align 8, !tbaa !50
  %9 = getelementptr inbounds nuw %struct.pmix_object_t, ptr %8, i32 0, i32 3
  %10 = getelementptr inbounds nuw %struct.pmix_tma, ptr %9, i32 0, i32 0
  store ptr null, ptr %10, align 8, !tbaa !54
  %11 = load ptr, ptr %3, align 8, !tbaa !50
  %12 = getelementptr inbounds nuw %struct.pmix_object_t, ptr %11, i32 0, i32 3
  %13 = getelementptr inbounds nuw %struct.pmix_tma, ptr %12, i32 0, i32 1
  store ptr null, ptr %13, align 8, !tbaa !55
  %14 = load ptr, ptr %3, align 8, !tbaa !50
  %15 = getelementptr inbounds nuw %struct.pmix_object_t, ptr %14, i32 0, i32 3
  %16 = getelementptr inbounds nuw %struct.pmix_tma, ptr %15, i32 0, i32 2
  store ptr null, ptr %16, align 8, !tbaa !56
  %17 = load ptr, ptr %3, align 8, !tbaa !50
  %18 = getelementptr inbounds nuw %struct.pmix_object_t, ptr %17, i32 0, i32 3
  %19 = getelementptr inbounds nuw %struct.pmix_tma, ptr %18, i32 0, i32 3
  store ptr null, ptr %19, align 8, !tbaa !57
  %20 = load ptr, ptr %3, align 8, !tbaa !50
  %21 = getelementptr inbounds nuw %struct.pmix_object_t, ptr %20, i32 0, i32 3
  %22 = getelementptr inbounds nuw %struct.pmix_tma, ptr %21, i32 0, i32 4
  store ptr null, ptr %22, align 8, !tbaa !58
  %23 = load ptr, ptr %3, align 8, !tbaa !50
  %24 = getelementptr inbounds nuw %struct.pmix_object_t, ptr %23, i32 0, i32 3
  %25 = getelementptr inbounds nuw %struct.pmix_tma, ptr %24, i32 0, i32 5
  store ptr null, ptr %25, align 8, !tbaa !59
  %26 = load ptr, ptr %3, align 8, !tbaa !50
  %27 = getelementptr inbounds nuw %struct.pmix_object_t, ptr %26, i32 0, i32 3
  %28 = getelementptr inbounds nuw %struct.pmix_tma, ptr %27, i32 0, i32 6
  store ptr null, ptr %28, align 8, !tbaa !60
  %29 = load ptr, ptr %3, align 8, !tbaa !50
  %30 = getelementptr inbounds nuw %struct.pmix_object_t, ptr %29, i32 0, i32 3
  %31 = getelementptr inbounds nuw %struct.pmix_tma, ptr %30, i32 0, i32 7
  store ptr null, ptr %31, align 8, !tbaa !61
  br label %36

32:                                               ; preds = %2
  %33 = load ptr, ptr %3, align 8, !tbaa !50
  %34 = getelementptr inbounds nuw %struct.pmix_object_t, ptr %33, i32 0, i32 3
  %35 = load ptr, ptr %4, align 8, !tbaa !52
  call void @llvm.memcpy.p0.p0.i64(ptr align 8 %34, ptr align 8 %35, i64 64, i1 false), !tbaa.struct !62
  br label %36

36:                                               ; preds = %32, %7
  ret void
}

; Function Attrs: nounwind uwtable
define i32 @PMIx_Get_credential(ptr noundef %0, i64 noundef %1, ptr noundef %2) #0 {
  %4 = alloca ptr, align 8
  %5 = alloca i64, align 8
  %6 = alloca ptr, align 8
  %7 = alloca %struct.pmix_query_caddy_t, align 8
  %8 = alloca i32, align 4
  store ptr %0, ptr %4, align 8, !tbaa !3
  store i64 %1, ptr %5, align 8, !tbaa !8
  store ptr %2, ptr %6, align 8, !tbaa !10
  call void @llvm.lifetime.start.p0(i64 896, ptr %7) #10
  call void @llvm.lifetime.start.p0(i64 4, ptr %8) #10
  br label %9

9:                                                ; preds = %3
  br label %10

10:                                               ; preds = %9
  br label %11

11:                                               ; preds = %10
  %12 = load i32, ptr @pmix_class_init_epoch, align 4, !tbaa !12
  %13 = load i32, ptr getelementptr inbounds nuw (%struct.pmix_class_t, ptr @pmix_query_caddy_t_class, i32 0, i32 4), align 8, !tbaa !14
  %14 = icmp ne i32 %12, %13
  br i1 %14, label %15, label %16

15:                                               ; preds = %11
  call void @pmix_class_initialize(ptr noundef @pmix_query_caddy_t_class)
  br label %16

16:                                               ; preds = %15, %11
  %17 = getelementptr inbounds nuw %struct.pmix_object_t, ptr %7, i32 0, i32 1
  store ptr @pmix_query_caddy_t_class, ptr %17, align 8, !tbaa !18
  %18 = getelementptr inbounds nuw %struct.pmix_object_t, ptr %7, i32 0, i32 2
  store i32 1, ptr %18, align 8, !tbaa !21
  call void @pmix_obj_construct_tma(ptr noundef %7, ptr noundef null)
  call void @pmix_obj_run_constructors(ptr noundef %7)
  br label %19

19:                                               ; preds = %16
  br label %20

20:                                               ; preds = %19
  br label %21

21:                                               ; preds = %20
  br label %22

22:                                               ; preds = %21
  br label %23

23:                                               ; preds = %22
  br label %24

24:                                               ; preds = %23
  %25 = load ptr, ptr %4, align 8, !tbaa !3
  %26 = load i64, ptr %5, align 8, !tbaa !8
  %27 = call i32 @PMIx_Get_credential_nb(ptr noundef %25, i64 noundef %26, ptr noundef @mycdcb, ptr noundef %7)
  store i32 %27, ptr %8, align 4, !tbaa !12
  %28 = load i32, ptr %8, align 4, !tbaa !12
  %29 = icmp eq i32 0, %28
  br i1 %29, label %30, label %79

30:                                               ; preds = %24
  br label %31

31:                                               ; preds = %30
  %32 = getelementptr inbounds nuw %struct.pmix_query_caddy_t, ptr %7, i32 0, i32 2
  %33 = getelementptr inbounds nuw %struct.pmix_lock_t, ptr %32, i32 0, i32 1
  call void @pmix_mutex_lock(ptr noundef %33)
  br label %34

34:                                               ; preds = %39, %31
  %35 = getelementptr inbounds nuw %struct.pmix_query_caddy_t, ptr %7, i32 0, i32 2
  %36 = getelementptr inbounds nuw %struct.pmix_lock_t, ptr %35, i32 0, i32 3
  %37 = load volatile i8, ptr %36, align 8, !tbaa !22, !range !41, !noundef !42
  %38 = trunc i8 %37 to i1
  br i1 %38, label %39, label %46

39:                                               ; preds = %34
  %40 = getelementptr inbounds nuw %struct.pmix_query_caddy_t, ptr %7, i32 0, i32 2
  %41 = getelementptr inbounds nuw %struct.pmix_lock_t, ptr %40, i32 0, i32 2
  %42 = getelementptr inbounds nuw %struct.pmix_query_caddy_t, ptr %7, i32 0, i32 2
  %43 = getelementptr inbounds nuw %struct.pmix_lock_t, ptr %42, i32 0, i32 1
  %44 = getelementptr inbounds nuw %struct.pmix_mutex_t, ptr %43, i32 0, i32 1
  %45 = call i32 @pthread_cond_wait(ptr noundef %41, ptr noundef %44)
  br label %34, !llvm.loop !43

46:                                               ; preds = %34
  call void @pmix_atomic_rmb()
  %47 = getelementptr inbounds nuw %struct.pmix_query_caddy_t, ptr %7, i32 0, i32 2
  %48 = getelementptr inbounds nuw %struct.pmix_lock_t, ptr %47, i32 0, i32 1
  call void @pmix_mutex_unlock(ptr noundef %48)
  br label %49

49:                                               ; preds = %46
  br label %50

50:                                               ; preds = %49
  %51 = getelementptr inbounds nuw %struct.pmix_query_caddy_t, ptr %7, i32 0, i32 4
  %52 = load i32, ptr %51, align 4, !tbaa !45
  store i32 %52, ptr %8, align 4, !tbaa !12
  %53 = getelementptr inbounds nuw %struct.pmix_query_caddy_t, ptr %7, i32 0, i32 16
  %54 = getelementptr inbounds nuw %struct.pmix_byte_object, ptr %53, i32 0, i32 0
  %55 = load ptr, ptr %54, align 8, !tbaa !46
  %56 = icmp ne ptr null, %55
  br i1 %56, label %57, label %78

57:                                               ; preds = %50
  %58 = getelementptr inbounds nuw %struct.pmix_query_caddy_t, ptr %7, i32 0, i32 16
  %59 = getelementptr inbounds nuw %struct.pmix_byte_object, ptr %58, i32 0, i32 1
  %60 = load i64, ptr %59, align 8, !tbaa !47
  %61 = call noalias ptr @malloc(i64 noundef %60) #11
  %62 = load ptr, ptr %6, align 8, !tbaa !10
  %63 = getelementptr inbounds nuw %struct.pmix_byte_object, ptr %62, i32 0, i32 0
  store ptr %61, ptr %63, align 8, !tbaa !48
  %64 = load ptr, ptr %6, align 8, !tbaa !10
  %65 = getelementptr inbounds nuw %struct.pmix_byte_object, ptr %64, i32 0, i32 0
  %66 = load ptr, ptr %65, align 8, !tbaa !48
  %67 = getelementptr inbounds nuw %struct.pmix_query_caddy_t, ptr %7, i32 0, i32 16
  %68 = getelementptr inbounds nuw %struct.pmix_byte_object, ptr %67, i32 0, i32 0
  %69 = load ptr, ptr %68, align 8, !tbaa !46
  %70 = getelementptr inbounds nuw %struct.pmix_query_caddy_t, ptr %7, i32 0, i32 16
  %71 = getelementptr inbounds nuw %struct.pmix_byte_object, ptr %70, i32 0, i32 1
  %72 = load i64, ptr %71, align 8, !tbaa !47
  call void @llvm.memcpy.p0.p0.i64(ptr align 1 %66, ptr align 1 %69, i64 %72, i1 false)
  %73 = getelementptr inbounds nuw %struct.pmix_query_caddy_t, ptr %7, i32 0, i32 16
  %74 = getelementptr inbounds nuw %struct.pmix_byte_object, ptr %73, i32 0, i32 1
  %75 = load i64, ptr %74, align 8, !tbaa !47
  %76 = load ptr, ptr %6, align 8, !tbaa !10
  %77 = getelementptr inbounds nuw %struct.pmix_byte_object, ptr %76, i32 0, i32 1
  store i64 %75, ptr %77, align 8, !tbaa !49
  br label %78

78:                                               ; preds = %57, %50
  br label %79

79:                                               ; preds = %78, %24
  br label %80

80:                                               ; preds = %79
  call void @pmix_obj_run_destructors(ptr noundef %7)
  br label %81

81:                                               ; preds = %80
  br label %82

82:                                               ; preds = %81
  %83 = load i32, ptr %8, align 4, !tbaa !12
  call void @llvm.lifetime.end.p0(i64 4, ptr %8) #10
  call void @llvm.lifetime.end.p0(i64 896, ptr %7) #10
  ret i32 %83
}