; Function Attrs: nounwind uwtable
define i32 @PMIx_Get_credential(ptr noundef %0, i64 noundef %1, ptr noundef writeonly captures(none) %2) local_unnamed_addr #0 {
  %4 = alloca %struct.pmix_query_caddy_t, align 8
  call void @llvm.lifetime.start.p0(i64 896, ptr nonnull %4) #12
  %5 = load i32, ptr @pmix_class_init_epoch, align 4, !tbaa !3
  %6 = load i32, ptr getelementptr inbounds nuw (i8, ptr @pmix_query_caddy_t_class, i64 32), align 8, !tbaa !7
  %.not = icmp eq i32 %5, %6
  br i1 %.not, label %8, label %7

7:                                                ; preds = %3
  tail call void @pmix_class_initialize(ptr noundef nonnull @pmix_query_caddy_t_class) #12
  br label %8

8:                                                ; preds = %7, %3
  %9 = getelementptr inbounds nuw i8, ptr %4, i64 40
  store ptr @pmix_query_caddy_t_class, ptr %9, align 8, !tbaa !13
  %10 = getelementptr inbounds nuw i8, ptr %4, i64 48
  store i32 1, ptr %10, align 8, !tbaa !16
  %11 = getelementptr inbounds nuw i8, ptr %4, i64 56
  call void @llvm.memset.p0.i64(ptr noundef nonnull align 8 dereferenceable(64) %11, i8 0, i64 64, i1 false)
  %12 = load ptr, ptr getelementptr inbounds nuw (i8, ptr @pmix_query_caddy_t_class, i64 40), align 8, !tbaa !17
  %13 = load ptr, ptr %12, align 8, !tbaa !18
  %.not6.i = icmp eq ptr %13, null
  br i1 %.not6.i, label %pmix_obj_run_constructors.exit, label %.lr.ph.i

.lr.ph.i:                                         ; preds = %8, %.lr.ph.i
  %14 = phi ptr [ %16, %.lr.ph.i ], [ %13, %8 ]
  %.07.i = phi ptr [ %15, %.lr.ph.i ], [ %12, %8 ]
  call void %14(ptr noundef nonnull %4) #12
  %15 = getelementptr inbounds nuw i8, ptr %.07.i, i64 8
  %16 = load ptr, ptr %15, align 8, !tbaa !18
  %.not.i = icmp eq ptr %16, null
  br i1 %.not.i, label %pmix_obj_run_constructors.exit, label %.lr.ph.i, !llvm.loop !19

pmix_obj_run_constructors.exit:                   ; preds = %.lr.ph.i, %8
  %17 = call i32 @PMIx_Get_credential_nb(ptr noundef %0, i64 noundef %1, ptr noundef nonnull @mycdcb, ptr noundef nonnull %4)
  %18 = icmp eq i32 %17, 0
  br i1 %18, label %19, label %40

19:                                               ; preds = %pmix_obj_run_constructors.exit
  %20 = getelementptr inbounds nuw i8, ptr %4, i64 376
  %21 = call i32 @pthread_mutex_lock(ptr noundef nonnull %20) #12
  %22 = getelementptr inbounds nuw i8, ptr %4, i64 464
  %23 = load volatile i8, ptr %22, align 8, !tbaa !21, !range !41, !noundef !42
  %24 = trunc nuw i8 %23 to i1
  br i1 %24, label %.lr.ph, label %._crit_edge

.lr.ph:                                           ; preds = %19
  %25 = getelementptr inbounds nuw i8, ptr %4, i64 416
  br label %26

26:                                               ; preds = %.lr.ph, %26
  %27 = call i32 @pthread_cond_wait(ptr noundef nonnull %25, ptr noundef nonnull %20) #12
  %28 = load volatile i8, ptr %22, align 8, !tbaa !21, !range !41, !noundef !42
  %29 = trunc nuw i8 %28 to i1
  br i1 %29, label %26, label %._crit_edge, !llvm.loop !43

._crit_edge:                                      ; preds = %26, %19
  fence acquire
  %30 = call i32 @pthread_mutex_unlock(ptr noundef nonnull %20) #12
  %31 = getelementptr inbounds nuw i8, ptr %4, i64 476
  %32 = load i32, ptr %31, align 4, !tbaa !44
  %33 = getelementptr inbounds nuw i8, ptr %4, i64 832
  %34 = load ptr, ptr %33, align 8, !tbaa !45
  %.not7 = icmp eq ptr %34, null
  br i1 %.not7, label %40, label %35

35:                                               ; preds = %._crit_edge
  %36 = getelementptr inbounds nuw i8, ptr %4, i64 840
  %37 = load i64, ptr %36, align 8, !tbaa !46
  %38 = call noalias ptr @malloc(i64 noundef %37) #13
  store ptr %38, ptr %2, align 8, !tbaa !47
  call void @llvm.memcpy.p0.p0.i64(ptr align 1 %38, ptr nonnull align 1 %34, i64 %37, i1 false)
  %39 = getelementptr inbounds nuw i8, ptr %2, i64 8
  store i64 %37, ptr %39, align 8, !tbaa !48
  br label %40

40:                                               ; preds = %pmix_obj_run_constructors.exit, %35, %._crit_edge
  %.0 = phi i32 [ %32, %35 ], [ %32, %._crit_edge ], [ %17, %pmix_obj_run_constructors.exit ]
  %41 = load ptr, ptr %9, align 8, !tbaa !13
  %42 = getelementptr inbounds nuw i8, ptr %41, i64 48
  %43 = load ptr, ptr %42, align 8, !tbaa !49
  %44 = load ptr, ptr %43, align 8, !tbaa !18
  %.not6.i8 = icmp eq ptr %44, null
  br i1 %.not6.i8, label %pmix_obj_run_destructors.exit, label %.lr.ph.i9

.lr.ph.i9:                                        ; preds = %40, %.lr.ph.i9
  %45 = phi ptr [ %47, %.lr.ph.i9 ], [ %44, %40 ]
  %.07.i10 = phi ptr [ %46, %.lr.ph.i9 ], [ %43, %40 ]
  call void %45(ptr noundef nonnull %4) #12
  %46 = getelementptr inbounds nuw i8, ptr %.07.i10, i64 8
  %47 = load ptr, ptr %46, align 8, !tbaa !18
  %.not.i11 = icmp eq ptr %47, null
  br i1 %.not.i11, label %pmix_obj_run_destructors.exit, label %.lr.ph.i9, !llvm.loop !50

pmix_obj_run_destructors.exit:                    ; preds = %.lr.ph.i9, %40
  call void @llvm.lifetime.end.p0(i64 896, ptr nonnull %4) #12
  ret i32 %.0
}